; Function Attrs: nounwind uwtable
define internal fastcc void @show_revert_in_progress(ptr noundef %0, ptr noundef %1) unnamed_addr #0 {
  %3 = getelementptr inbounds nuw i8, ptr %0, i64 948
  %bcmp.i = tail call i32 @bcmp(ptr noundef nonnull readonly dereferenceable(32) %3, ptr noundef nonnull dereferenceable(32) @is_null_oid.null_hash, i64 32)
  %.not.i.not = icmp eq i32 %bcmp.i, 0
  %4 = load i32, ptr @git_gettext_enabled, align 4, !tbaa !128
  %.not4.i = icmp eq i32 %4, 0
  br i1 %.not.i.not, label %5, label %8

5:                                                ; preds = %2
  br i1 %.not4.i, label %_.exit, label %6

6:                                                ; preds = %5
  %7 = tail call ptr @dcgettext(ptr noundef null, ptr noundef nonnull @.str.175, i32 noundef 5) #20
  br label %_.exit

_.exit:                                           ; preds = %5, %6
  %.0.i = phi ptr [ %7, %6 ], [ @.str.175, %5 ]
  tail call void (ptr, ptr, ptr, ...) @status_printf_ln(ptr noundef nonnull %0, ptr noundef %1, ptr noundef %.0.i)
  br label %14

8:                                                ; preds = %2
  br i1 %.not4.i, label %_.exit25, label %9

9:                                                ; preds = %8
  %10 = tail call ptr @dcgettext(ptr noundef null, ptr noundef nonnull @.str.176, i32 noundef 5) #20
  br label %_.exit25

_.exit25:                                         ; preds = %8, %9
  %.0.i24 = phi ptr [ %10, %9 ], [ @.str.176, %8 ]
  %11 = load ptr, ptr @the_repository, align 8, !tbaa !33
  %12 = load i32, ptr @default_abbrev, align 4, !tbaa !128
  %13 = tail call ptr @repo_find_unique_abbrev(ptr noundef %11, ptr noundef nonnull %3, i32 noundef %12) #20
  tail call void (ptr, ptr, ptr, ...) @status_printf_ln(ptr noundef nonnull %0, ptr noundef %1, ptr noundef %.0.i24, ptr noundef %13)
  br label %14

14:                                               ; preds = %_.exit25, %_.exit
  %15 = getelementptr inbounds nuw i8, ptr %0, i64 808
  %16 = load i32, ptr %15, align 8, !tbaa !219
  %.not20 = icmp eq i32 %16, 0
  br i1 %.not20, label %37, label %17

17:                                               ; preds = %14
  %18 = getelementptr inbounds nuw i8, ptr %0, i64 1104
  %19 = load i64, ptr %18, align 8, !tbaa !165
  %.not13.i = icmp eq i64 %19, 0
  br i1 %.not13.i, label %.loopexit, label %.lr.ph.i

.lr.ph.i:                                         ; preds = %17
  %20 = getelementptr inbounds nuw i8, ptr %0, i64 1096
  %21 = load ptr, ptr %20, align 8, !tbaa !166
  br label %23

22:                                               ; preds = %23
  %indvars.iv.next.i = add nuw i64 %indvars.iv.i, 1
  %exitcond.not.i = icmp eq i64 %indvars.iv.next.i, %19
  br i1 %exitcond.not.i, label %.loopexit, label %23, !llvm.loop !167

23:                                               ; preds = %22, %.lr.ph.i
  %indvars.iv.i = phi i64 [ 0, %.lr.ph.i ], [ %indvars.iv.next.i, %22 ]
  %24 = getelementptr inbounds nuw %struct.string_list_item, ptr %21, i64 %indvars.iv.i, i32 1
  %25 = load ptr, ptr %24, align 8, !tbaa !131
  %26 = getelementptr inbounds nuw i8, ptr %25, i64 8
  %27 = load i32, ptr %26, align 8, !tbaa !135
  %.not.i26 = icmp eq i32 %27, 0
  br i1 %.not.i26, label %22, label %has_unmerged.exit

has_unmerged.exit:                                ; preds = %23
  %28 = load i32, ptr @git_gettext_enabled, align 4, !tbaa !128
  %.not4.i27 = icmp eq i32 %28, 0
  br i1 %.not4.i27, label %_.exit29, label %_.exit29.sink.split

.loopexit:                                        ; preds = %22, %17
  %bcmp.i30 = tail call i32 @bcmp(ptr noundef nonnull readonly dereferenceable(32) %3, ptr noundef nonnull dereferenceable(32) @is_null_oid.null_hash, i64 32)
  %.not.i31.not = icmp eq i32 %bcmp.i30, 0
  %29 = load i32, ptr @git_gettext_enabled, align 4, !tbaa !128
  %.not4.i32 = icmp eq i32 %29, 0
  %.str.178..str.179 = select i1 %.not.i31.not, ptr @.str.178, ptr @.str.179
  br i1 %.not4.i32, label %_.exit29, label %_.exit29.sink.split

_.exit29.sink.split:                              ; preds = %.loopexit, %has_unmerged.exit
  %.str.179.sink = phi ptr [ @.str.177, %has_unmerged.exit ], [ %.str.178..str.179, %.loopexit ]
  %30 = tail call ptr @dcgettext(ptr noundef null, ptr noundef nonnull %.str.179.sink, i32 noundef 5) #20
  br label %_.exit29

_.exit29:                                         ; preds = %.loopexit, %_.exit29.sink.split, %has_unmerged.exit
  %.0.i33.sink = phi ptr [ @.str.177, %has_unmerged.exit ], [ %30, %_.exit29.sink.split ], [ %.str.178..str.179, %.loopexit ]
  tail call void (ptr, ptr, ptr, ...) @status_printf_ln(ptr noundef %0, ptr noundef %1, ptr noundef %.0.i33.sink)
  %31 = load i32, ptr @git_gettext_enabled, align 4, !tbaa !128
  %.not4.i38 = icmp eq i32 %31, 0
  br i1 %.not4.i38, label %_.exit40, label %32

32:                                               ; preds = %_.exit29
  %33 = tail call ptr @dcgettext(ptr noundef null, ptr noundef nonnull @.str.180, i32 noundef 5) #20
  br label %_.exit40

_.exit40:                                         ; preds = %_.exit29, %32
  %.0.i39 = phi ptr [ %33, %32 ], [ @.str.180, %_.exit29 ]
  tail call void (ptr, ptr, ptr, ...) @status_printf_ln(ptr noundef %0, ptr noundef %1, ptr noundef %.0.i39)
  %34 = load i32, ptr @git_gettext_enabled, align 4, !tbaa !128
  %.not4.i41 = icmp eq i32 %34, 0
  br i1 %.not4.i41, label %_.exit43, label %35

35:                                               ; preds = %_.exit40
  %36 = tail call ptr @dcgettext(ptr noundef null, ptr noundef nonnull @.str.181, i32 noundef 5) #20
  br label %_.exit43

_.exit43:                                         ; preds = %_.exit40, %35
  %.0.i42 = phi ptr [ %36, %35 ], [ @.str.181, %_.exit40 ]
  tail call void (ptr, ptr, ptr, ...) @status_printf_ln(ptr noundef %0, ptr noundef %1, ptr noundef %.0.i42)
  br label %37

37:                                               ; preds = %_.exit43, %14
  %38 = getelementptr inbounds nuw i8, ptr %0, i64 72
  %39 = load i32, ptr %38, align 8, !tbaa !31
  %40 = tail call i32 @want_color_fd(i32 noundef 1, i32 noundef %39) #20
  %.not.i.i = icmp eq i32 %40, 0
  %41 = getelementptr inbounds nuw i8, ptr %0, i64 112
  %.0.i.i = select i1 %.not.i.i, ptr @.str.29, ptr %41
  tail call void (ptr, ptr, ptr, ...) @status_printf_ln(ptr noundef %0, ptr noundef nonnull %.0.i.i, ptr noundef nonnull @.str.10, ptr noundef nonnull @.str.29)
  ret void
}